Certificate:
    Data:
        Version: 3 (0x2)
        Serial Number: 1 (0x1)
    Signature Algorithm: ecdsa-with-SHA256
        Issuer: C=FR, ST=FRANCE, L=Limoges, O=CertifPlus, OU=Service de Certification, CN=CertifPlus AC/emailAddress=support@certiplus.fr
        Validity
            Not Before: Mar 27 23:19:44 2019 GMT
            Not After : Mar 24 23:19:44 2029 GMT
        Subject: CN=CertiPlus Application/emailAddress=app@certiplus.fr
        Subject Public Key Info:
            Public Key Algorithm: id-ecPublicKey
                Public-Key: (256 bit)
                pub:
                    04:b1:32:d6:be:3f:14:fb:53:fd:ba:33:bd:94:9c:
                    45:13:53:ac:28:e9:16:97:a7:d8:78:6c:ca:0f:cd:
                    4c:f9:02:c5:39:6d:49:cd:02:07:fc:44:7a:4b:af:
                    76:60:5d:6d:49:b1:44:f0:57:7a:c4:6d:aa:ce:21:
                    7a:27:91:c0:5f
                ASN1 OID: prime256v1
                NIST CURVE: P-256
        X509v3 extensions:
            X509v3 Subject Alternative Name: 
                email:app@certiplus.fr
            X509v3 Basic Constraints: critical
                CA:FALSE
            X509v3 Authority Key Identifier: 
                keyid:F0:41:F6:61:2E:72:A2:57:16:D0:06:37:38:AA:B6:99:17:24:D7:22

            X509v3 Subject Key Identifier: 
                0D:3F:22:FB:5D:7A:FB:CF:D7:B4:DA:AC:FF:8A:4E:AB:E6:71:75:A0
            X509v3 Extended Key Usage: 
                TLS Web Client Authentication, E-mail Protection
    Signature Algorithm: ecdsa-with-SHA256
         30:45:02:21:00:bc:be:76:eb:39:7b:2b:dc:6b:9a:af:19:00:
         5f:51:04:4e:60:15:e2:e2:1d:d2:18:72:27:cd:8c:02:9a:8a:
         e4:02:20:06:80:f3:34:93:aa:50:76:9f:0b:c3:a4:54:06:ba:
         d9:57:e6:f9:89:26:24:ad:0e:f9:dd:c3:e9:cf:b1:13:83
-----BEGIN CERTIFICATE-----
MIICZDCCAgqgAwIBAgIBATAKBggqhkjOPQQDAjCBpTELMAkGA1UEBhMCRlIxDzAN
BgNVBAgTBkZSQU5DRTEQMA4GA1UEBxMHTGltb2dlczETMBEGA1UEChMKQ2VydGlm
UGx1czEhMB8GA1UECxMYU2VydmljZSBkZSBDZXJ0aWZpY2F0aW9uMRYwFAYDVQQD
Ew1DZXJ0aWZQbHVzIEFDMSMwIQYJKoZIhvcNAQkBFhRzdXBwb3J0QGNlcnRpcGx1
cy5mcjAeFw0xOTAzMjcyMzE5NDRaFw0yOTAzMjQyMzE5NDRaMEExHjAcBgNVBAMT
FUNlcnRpUGx1cyBBcHBsaWNhdGlvbjEfMB0GCSqGSIb3DQEJARYQYXBwQGNlcnRp
cGx1cy5mcjBZMBMGByqGSM49AgEGCCqGSM49AwEHA0IABLEy1r4/FPtT/bozvZSc
RRNTrCjpFpen2Hhsyg/NTPkCxTltSc0CB/xEekuvdmBdbUmxRPBXesRtqs4heieR
wF+jgY0wgYowGwYDVR0RBBQwEoEQYXBwQGNlcnRpcGx1cy5mcjAMBgNVHRMBAf8E
AjAAMB8GA1UdIwQYMBaAFPBB9mEucqJXFtAGNziqtpkXJNciMB0GA1UdDgQWBBQN
PyL7XXr7z9e02qz/ik6r5nF1oDAdBgNVHSUEFjAUBggrBgEFBQcDAgYIKwYBBQUH
AwQwCgYIKoZIzj0EAwIDSAAwRQIhALy+dus5eyvca5qvGQBfUQROYBXi4h3SGHIn
zYwCmorkAiAGgPM0k6pQdp8Lw6RUBrrZV+b5iSYkrQ753cPpz7ETgw==
-----END CERTIFICATE-----
